Certificate:
    Data:
        Version: 3 (0x2)
        Serial Number: 268435671 (0x100000d7)
        Signature Algorithm: sha256WithRSAEncryption
        Issuer: C=DE, ST=Hessen, O=privacyidea, CN=CA001
        Validity
            Not Before: Jan 27 10:30:45 2023 GMT
            Not After : Jan 27 10:30:45 2024 GMT
        Subject: CN=selfservice,CN=user,O=realm1/emailAddress=meine
        Subject Public Key Info:
            Public Key Algorithm: rsaEncryption
                RSA Public-Key: (2048 bit)
                Modulus:
                    00:cf:3c:d4:33:0e:12:c4:e6:da:cd:b6:56:a1:1c:
                    26:bb:26:1c:8a:4a:73:a8:58:8a:b6:1e:b3:8b:99:
                    d2:1d:07:c2:92:89:79:c0:69:d8:c8:df:28:61:98:
                    1e:b3:fe:ae:2b:bd:78:a9:f7:6e:47:dc:a3:a0:16:
                    8c:85:02:c1:4e:92:fd:72:6e:f0:c8:03:29:9b:b8:
                    00:6e:c0:83:95:c8:34:20:36:9c:b3:e5:e4:e6:76:
                    73:a3:1a:ad:40:96:e0:53:54:00:ec:76:79:9a:c6:
                    0d:7e:b6:bd:29:ec:83:f3:cb:89:a4:cb:6c:00:ba:
                    0c:c5:78:0f:ff:69:b8:94:f4:04:70:43:3f:d8:9e:
                    d7:a7:fb:5d:ce:75:8e:da:e7:c4:07:b1:9d:de:6f:
                    88:4b:b6:4d:9a:cf:f9:bc:fa:9f:cd:32:6d:f6:3a:
                    0b:0d:23:42:78:ec:97:42:bf:0e:4d:60:56:e1:d3:
                    02:f2:19:cb:84:57:90:e5:70:a1:a2:83:35:86:e2:
                    da:86:9f:f9:8a:c4:79:b3:52:28:da:cb:bb:34:ca:
                    d3:da:91:4a:cf:8d:76:a2:b2:6b:9b:f9:96:fd:09:
                    2a:da:11:23:4d:f0:cb:d6:b2:b1:0e:12:6c:9a:19:
                    65:98:87:ca:e4:ee:24:ce:44:ac:90:8f:9d:1b:c5:
                    2a:9d
                Exponent: 65537 (0x10001)
        X509v3 extensions:
            X509v3 Key Usage: 
                Digital Signature, Key Encipherment
            X509v3 Basic Constraints: 
                CA:FALSE
            Netscape Cert Type: 
                SSL Server
            Netscape Comment: 
                OpenSSL Generated Server Certificate
            X509v3 Subject Key Identifier: 
                4D:07:90:AD:FF:1D:0D:E7:1A:DD:D6:2E:FA:BA:34:CB:AA:1F:24:C6
            X509v3 Authority Key Identifier: 
                keyid:F4:A7:C0:CC:91:46:AF:64:F3:91:F2:27:F8:C8:B2:6F:8A:87:32:73
                DirName:/C=DE/ST=Hessen/O=privacyidea/CN=CA001
                serial:FB:C8:EB:AC:83:CD:12:07

            X509v3 Extended Key Usage: 
                TLS Web Server Authentication
    Signature Algorithm: sha256WithRSAEncryption
         63:2b:a7:97:48:af:49:49:b9:11:16:76:bc:16:c8:a7:8a:16:
         fd:04:78:f4:17:d5:d4:10:3a:5b:8a:9f:e2:3b:41:82:63:70:
         98:8b:9e:89:8e:fb:aa:7e:bd:d3:be:ee:bf:e5:ca:b7:7e:ae:
         de:64:1c:b9:2d:43:96:ee:bf:d8:ad:bb:8d:48:bd:1f:cf:37:
         11:1a:c6:f4:b8:2f:fd:ed:9e:f7:9b:57:65:00:da:8b:0b:51:
         09:f9:9d:71:a2:ab:95:d2:8f:56:7e:c1:53:c8:f8:dc:fd:82:
         73:29:ed:66:02:37:58:d5:48:5c:70:9a:df:1f:8e:fb:e5:78:
         53:9c:8a:a4:3a:80:88:4e:6e:80:96:57:c7:31:df:7f:4d:97:
         4a:9f:7d:08:b4:7a:8a:11:f3:7b:72:10:5e:22:b1:83:f3:f6:
         9d:1f:dc:69:dd:b7:e3:2d:bb:9c:41:8f:e2:06:54:85:f5:f2:
         e0:be:29:5b:dd:7a:64:9d:fe:bc:f0:d8:4f:69:23:72:6b:93:
         11:10:b2:5d:66:e1:48:6c:2f:0b:69:cb:09:ee:c6:79:e0:1a:
         74:43:2f:df:1a:82:f2:7c:84:c6:bb:fa:06:4c:0e:b5:91:1f:
         b3:55:68:b6:2f:48:07:cf:a1:a6:8c:d5:ef:32:3a:1e:d2:5c:
         29:da:41:ab
-----BEGIN CERTIFICATE-----
MIIEDzCCAvegAwIBAgIEEAAA1zANBgkqhkiG9w0BAQsFADBEMQswCQYDVQQGEwJE
RTEPMA0GA1UECAwGSGVzc2VuMRQwEgYDVQQKDAtwcml2YWN5aWRlYTEOMAwGA1UE
AwwFQ0EwMDEwHhcNMjMwMTI3MTAzMDQ1WhcNMjQwMTI3MTAzMDQ1WjA9MSUwIwYD
VQQDDBxzZWxmc2VydmljZSxDTj11c2VyLE89cmVhbG0xMRQwEgYJKoZIhvcNAQkB
FgVtZWluZTCCASIwDQYJKoZIhvcNAQEBBQADggEPADCCAQoCggEBAM881DMOEsTm
2s22VqEcJrsmHIpKc6hYirYes4uZ0h0HwpKJecBp2MjfKGGYHrP+riu9eKn3bkfc
o6AWjIUCwU6S/XJu8MgDKZu4AG7Ag5XINCA2nLPl5OZ2c6MarUCW4FNUAOx2eZrG
DX62vSnsg/PLiaTLbAC6DMV4D/9puJT0BHBDP9ie16f7Xc51jtrnxAexnd5viEu2
TZrP+bz6n80ybfY6Cw0jQnjsl0K/Dk1gVuHTAvIZy4RXkOVwoaKDNYbi2oaf+YrE
ebNSKNrLuzTK09qRSs+NdqKya5v5lv0JKtoRI03wy9aysQ4SbJoZZZiHyuTuJM5E
rJCPnRvFKp0CAwEAAaOCAQ4wggEKMAsGA1UdDwQEAwIFoDAJBgNVHRMEAjAAMBEG
CWCGSAGG+EIBAQQEAwIGQDAzBglghkgBhvhCAQ0EJhYkT3BlblNTTCBHZW5lcmF0
ZWQgU2VydmVyIENlcnRpZmljYXRlMB0GA1UdDgQWBBRNB5Ct/x0N5xrd1i76ujTL
qh8kxjB0BgNVHSMEbTBrgBT0p8DMkUavZPOR8if4yLJviocyc6FIpEYwRDELMAkG
A1UEBhMCREUxDzANBgNVBAgMBkhlc3NlbjEUMBIGA1UECgwLcHJpdmFjeWlkZWEx
DjAMBgNVBAMMBUNBMDAxggkA+8jrrIPNEgcwEwYDVR0lBAwwCgYIKwYBBQUHAwEw
DQYJKoZIhvcNAQELBQADggEBAGMrp5dIr0lJuREWdrwWyKeKFv0EePQX1dQQOluK
n+I7QYJjcJiLnomO+6p+vdO+7r/lyrd+rt5kHLktQ5buv9itu41IvR/PNxEaxvS4
L/3tnvebV2UA2osLUQn5nXGiq5XSj1Z+wVPI+Nz9gnMp7WYCN1jVSFxwmt8fjvvl
eFOciqQ6gIhOboCWV8cx339Nl0qffQi0eooR83tyEF4isYPz9p0f3Gndt+Mtu5xB
j+IGVIX18uC+KVvdemSd/rzw2E9pI3JrkxEQsl1m4UhsLwtpywnuxnngGnRDL98a
gvJ8hMa7+gZMDrWRH7NVaLYvSAfPoaaM1e8yOh7SXCnaQas=
-----END CERTIFICATE-----
