Certificate:
    Data:
        Version: 3 (0x2)
        Serial Number: 268435670 (0x100000d6)
        Signature Algorithm: sha256WithRSAEncryption
        Issuer: C=DE, ST=Hessen, O=privacyidea, CN=CA001
        Validity
            Not Before: Jan 27 10:29:50 2023 GMT
            Not After : Jan 27 10:29:50 2024 GMT
        Subject: OU=realm1, CN=cornelius/emailAddress=user@localhost.localdomain
        Subject Public Key Info:
            Public Key Algorithm: rsaEncryption
                RSA Public-Key: (2048 bit)
                Modulus:
                    00:aa:a9:d3:85:ed:68:bb:46:71:24:de:25:74:dd:
                    00:b8:36:7b:ce:24:0d:d5:af:0c:bd:03:6a:8e:7f:
                    cd:85:ac:63:b3:82:c9:e0:e5:08:ee:7f:52:44:b4:
                    25:f6:e4:e7:27:01:be:16:cf:1e:08:f7:91:72:c8:
                    b3:e2:ab:3d:ae:4f:d2:0a:e1:2a:cf:2a:b0:8d:f1:
                    ed:cf:8d:ad:80:84:54:84:ee:5a:6d:18:43:c3:18:
                    3e:99:85:46:ff:c8:7a:d1:07:84:69:aa:4f:b5:32:
                    32:1b:ac:11:c8:ff:54:ee:4e:08:5b:54:43:1d:f2:
                    19:1d:14:f7:ca:ca:10:79:da:31:8c:51:34:f2:a6:
                    06:2f:8a:7f:5b:df:a7:3f:93:0f:4f:47:47:df:ae:
                    0c:82:af:e1:b6:11:79:9d:ab:52:e8:7c:48:53:45:
                    59:0f:dd:8a:40:36:e7:d8:6a:63:2d:f1:62:92:ca:
                    6b:ec:1d:40:18:1d:f7:f4:25:ae:df:d7:2b:72:b8:
                    02:74:c9:ca:25:aa:e3:f1:54:98:90:cb:53:51:db:
                    96:47:f2:5d:a6:e5:a8:52:28:59:ef:46:8c:89:9e:
                    0a:2b:84:5e:b9:53:f0:65:e8:7c:e7:08:6f:5c:65:
                    27:23:54:31:74:2e:39:b5:b7:d4:ba:d4:84:76:e4:
                    4e:bb
                Exponent: 65537 (0x10001)
        X509v3 extensions:
            X509v3 Key Usage: 
                Digital Signature, Key Encipherment
            X509v3 Basic Constraints: 
                CA:FALSE
            Netscape Cert Type: 
                SSL Server
            Netscape Comment: 
                OpenSSL Generated Server Certificate
            X509v3 Subject Key Identifier: 
                30:B7:22:A7:32:DC:0F:4A:C8:8C:FB:EB:B9:37:F4:EB:B2:56:A6:AD
            X509v3 Authority Key Identifier: 
                keyid:F4:A7:C0:CC:91:46:AF:64:F3:91:F2:27:F8:C8:B2:6F:8A:87:32:73
                DirName:/C=DE/ST=Hessen/O=privacyidea/CN=CA001
                serial:FB:C8:EB:AC:83:CD:12:07

            X509v3 Extended Key Usage: 
                TLS Web Server Authentication
    Signature Algorithm: sha256WithRSAEncryption
         99:bd:a9:ed:44:83:c0:04:bd:fe:02:9d:af:55:ff:d6:12:6a:
         aa:5f:6e:96:64:bb:1f:25:43:aa:47:fa:50:11:19:34:78:77:
         a7:0a:cd:9d:2a:6a:78:18:00:e3:61:32:a6:50:9e:e3:b1:d3:
         a1:8f:e7:24:7a:1b:39:3f:89:fb:df:4c:e3:21:76:26:bc:b5:
         88:9f:ac:08:0a:2b:27:1d:f5:fc:62:08:88:eb:05:e2:3f:7b:
         ad:5f:29:19:4c:2b:49:6f:0a:94:00:cd:25:88:10:d1:17:b3:
         25:1f:79:56:8c:06:4d:b2:da:1c:80:1b:58:d0:08:37:bd:4b:
         5a:22:9b:2a:80:f1:34:93:81:ba:47:4d:ac:f4:e4:e0:ad:c6:
         27:4f:fe:2e:e1:65:9f:0f:50:4c:fe:03:bf:ae:55:84:b4:3e:
         82:41:6b:83:2e:ae:b6:4b:97:f0:6f:04:ba:2c:9b:45:a3:8e:
         48:69:2f:f4:10:20:16:4c:96:2c:1b:67:d6:c4:92:cb:d2:01:
         b1:94:9c:b7:20:6e:be:62:8b:97:3c:2b:3a:98:66:a0:c8:a2:
         85:68:94:f7:a4:76:25:c3:7b:7a:f5:9d:58:96:13:6b:b8:c0:
         f6:18:a9:8e:d1:d5:af:90:c5:71:4e:0b:8d:ab:9a:fb:b2:fa:
         dc:09:67:50
-----BEGIN CERTIFICATE-----
MIIEIjCCAwqgAwIBAgIEEAAA1jANBgkqhkiG9w0BAQsFADBEMQswCQYDVQQGEwJE
RTEPMA0GA1UECAwGSGVzc2VuMRQwEgYDVQQKDAtwcml2YWN5aWRlYTEOMAwGA1UE
AwwFQ0EwMDEwHhcNMjMwMTI3MTAyOTUwWhcNMjQwMTI3MTAyOTUwWjBQMQ8wDQYD
VQQLDAZyZWFsbTExEjAQBgNVBAMMCWNvcm5lbGl1czEpMCcGCSqGSIb3DQEJARYa
dXNlckBsb2NhbGhvc3QubG9jYWxkb21haW4wggEiMA0GCSqGSIb3DQEBAQUAA4IB
DwAwggEKAoIBAQCqqdOF7Wi7RnEk3iV03QC4NnvOJA3Vrwy9A2qOf82FrGOzgsng
5Qjuf1JEtCX25OcnAb4Wzx4I95FyyLPiqz2uT9IK4SrPKrCN8e3Pja2AhFSE7lpt
GEPDGD6ZhUb/yHrRB4Rpqk+1MjIbrBHI/1TuTghbVEMd8hkdFPfKyhB52jGMUTTy
pgYvin9b36c/kw9PR0ffrgyCr+G2EXmdq1LofEhTRVkP3YpANufYamMt8WKSymvs
HUAYHff0Ja7f1ytyuAJ0ycolquPxVJiQy1NR25ZH8l2m5ahSKFnvRoyJngorhF65
U/Bl6HznCG9cZScjVDF0Ljm1t9S61IR25E67AgMBAAGjggEOMIIBCjALBgNVHQ8E
BAMCBaAwCQYDVR0TBAIwADARBglghkgBhvhCAQEEBAMCBkAwMwYJYIZIAYb4QgEN
BCYWJE9wZW5TU0wgR2VuZXJhdGVkIFNlcnZlciBDZXJ0aWZpY2F0ZTAdBgNVHQ4E
FgQUMLcipzLcD0rIjPvruTf067JWpq0wdAYDVR0jBG0wa4AU9KfAzJFGr2TzkfIn
+Miyb4qHMnOhSKRGMEQxCzAJBgNVBAYTAkRFMQ8wDQYDVQQIDAZIZXNzZW4xFDAS
BgNVBAoMC3ByaXZhY3lpZGVhMQ4wDAYDVQQDDAVDQTAwMYIJAPvI66yDzRIHMBMG
A1UdJQQMMAoGCCsGAQUFBwMBMA0GCSqGSIb3DQEBCwUAA4IBAQCZvantRIPABL3+
Ap2vVf/WEmqqX26WZLsfJUOqR/pQERk0eHenCs2dKmp4GADjYTKmUJ7jsdOhj+ck
ehs5P4n730zjIXYmvLWIn6wICisnHfX8YgiI6wXiP3utXykZTCtJbwqUAM0liBDR
F7MlH3lWjAZNstocgBtY0Ag3vUtaIpsqgPE0k4G6R02s9OTgrcYnT/4u4WWfD1BM
/gO/rlWEtD6CQWuDLq62S5fwbwS6LJtFo45IaS/0ECAWTJYsG2fWxJLL0gGxlJy3
IG6+YouXPCs6mGagyKKFaJT3pHYlw3t69Z1YlhNruMD2GKmO0dWvkMVxTguNq5r7
svrcCWdQ
-----END CERTIFICATE-----
