Certificate:
    Data:
        Version: 3 (0x2)
        Serial Number: 268435669 (0x100000d5)
        Signature Algorithm: sha256WithRSAEncryption
        Issuer: C=DE, ST=Hessen, O=privacyidea, CN=CA001
        Validity
            Not Before: Jan 27 10:29:50 2023 GMT
            Not After : Jan 27 10:29:50 2024 GMT
        Subject: CN=cornelius
        Subject Public Key Info:
            Public Key Algorithm: rsaEncryption
                RSA Public-Key: (2048 bit)
                Modulus:
                    00:ad:a7:06:6c:cc:98:00:95:26:59:dc:cd:82:42:
                    b5:3a:29:38:57:f2:27:e3:33:e9:a5:b0:ad:d3:7f:
                    91:4d:31:1d:7d:da:da:9d:69:1a:bb:2b:b7:bd:ba:
                    b7:93:52:f7:82:0f:37:c3:43:10:05:e1:70:3e:2f:
                    5d:c8:ec:5d:c6:36:26:96:1f:fa:ff:6b:97:01:da:
                    77:c4:2a:44:37:e3:e6:01:53:16:2b:6d:8d:55:4f:
                    c8:ba:cd:57:de:89:2c:73:86:ba:26:cc:ab:5b:bd:
                    ca:58:d2:a4:dc:24:a7:db:08:1a:16:b8:14:05:9e:
                    ce:0b:27:98:c4:0d:de:98:6f:f6:2e:67:f6:90:57:
                    96:d6:ea:9d:85:88:4a:6e:b1:dd:cd:1c:e5:e5:89:
                    46:fb:91:ae:da:4c:72:9e:42:4c:9d:a1:1a:5a:f7:
                    93:a4:a2:12:d5:f5:2a:11:f2:3d:a4:37:1f:a8:9b:
                    4a:7a:8e:de:95:52:99:6c:68:41:02:13:62:3d:9e:
                    a9:9a:92:fe:9e:28:73:4a:32:d7:93:eb:95:f1:14:
                    4b:b5:02:37:89:e7:cf:43:c2:46:ef:3a:0b:db:08:
                    69:c1:c0:d6:4d:03:c2:b7:99:dc:08:c6:c1:4f:d9:
                    d8:63:bc:42:42:7b:56:e8:2b:36:13:6a:5e:1a:58:
                    05:ff
                Exponent: 65537 (0x10001)
        X509v3 extensions:
            X509v3 Key Usage: 
                Digital Signature, Key Encipherment
            X509v3 Basic Constraints: 
                CA:FALSE
            Netscape Cert Type: 
                SSL Server
            Netscape Comment: 
                OpenSSL Generated Server Certificate
            X509v3 Subject Key Identifier: 
                61:28:87:E3:25:E0:43:7A:F0:54:2A:23:FD:B2:5C:76:DB:CD:E5:F1
            X509v3 Authority Key Identifier: 
                keyid:F4:A7:C0:CC:91:46:AF:64:F3:91:F2:27:F8:C8:B2:6F:8A:87:32:73
                DirName:/C=DE/ST=Hessen/O=privacyidea/CN=CA001
                serial:FB:C8:EB:AC:83:CD:12:07

            X509v3 Extended Key Usage: 
                TLS Web Server Authentication
    Signature Algorithm: sha256WithRSAEncryption
         bb:7a:94:29:84:7d:6b:28:7f:15:e7:e3:99:7e:e1:d5:5e:1a:
         ee:bd:b3:46:61:f9:d0:d2:67:f6:5c:ab:22:20:e7:ed:20:27:
         db:c9:36:2b:33:a8:db:45:68:e2:0a:43:f6:aa:8b:3a:f7:c7:
         bd:d2:8a:4f:75:02:9c:3f:18:3f:1e:82:f2:d8:f0:d4:3b:45:
         cc:42:51:da:b6:71:05:28:0d:a5:47:b2:23:1c:47:43:70:ee:
         33:ac:c3:2d:d9:0c:55:20:99:65:a0:00:f2:d3:8f:cd:96:2c:
         e0:df:17:87:1c:b8:71:78:60:e1:85:20:b7:e8:82:50:e0:7a:
         40:bd:8b:c4:9d:20:d7:05:25:47:2b:a6:d2:b5:dc:08:fe:29:
         17:00:08:31:a3:11:1e:ae:42:6d:de:cf:f4:7b:e0:c0:0d:be:
         9f:62:43:1e:30:b1:96:82:b0:a3:25:63:b4:b0:41:b7:23:0c:
         f7:be:05:6c:76:a2:fb:51:19:cc:e7:ce:83:df:bc:6c:f2:86:
         92:18:04:18:4c:4e:7c:2b:ba:98:7d:44:b2:07:a2:5c:be:ba:
         0a:d5:87:be:7e:76:0d:89:b6:1c:07:e0:82:4d:75:26:1c:90:
         a7:30:76:43:0d:c0:51:16:aa:e8:cb:f1:be:cd:43:7f:c0:46:
         c6:bb:1c:81
-----BEGIN CERTIFICATE-----
MIID5jCCAs6gAwIBAgIEEAAA1TANBgkqhkiG9w0BAQsFADBEMQswCQYDVQQGEwJE
RTEPMA0GA1UECAwGSGVzc2VuMRQwEgYDVQQKDAtwcml2YWN5aWRlYTEOMAwGA1UE
AwwFQ0EwMDEwHhcNMjMwMTI3MTAyOTUwWhcNMjQwMTI3MTAyOTUwWjAUMRIwEAYD
VQQDDAljb3JuZWxpdXMwggEiMA0GCSqGSIb3DQEBAQUAA4IBDwAwggEKAoIBAQCt
pwZszJgAlSZZ3M2CQrU6KThX8ifjM+mlsK3Tf5FNMR192tqdaRq7K7e9ureTUveC
DzfDQxAF4XA+L13I7F3GNiaWH/r/a5cB2nfEKkQ34+YBUxYrbY1VT8i6zVfeiSxz
hromzKtbvcpY0qTcJKfbCBoWuBQFns4LJ5jEDd6Yb/YuZ/aQV5bW6p2FiEpusd3N
HOXliUb7ka7aTHKeQkydoRpa95OkohLV9SoR8j2kNx+om0p6jt6VUplsaEECE2I9
nqmakv6eKHNKMteT65XxFEu1AjeJ589DwkbvOgvbCGnBwNZNA8K3mdwIxsFP2dhj
vEJCe1boKzYTal4aWAX/AgMBAAGjggEOMIIBCjALBgNVHQ8EBAMCBaAwCQYDVR0T
BAIwADARBglghkgBhvhCAQEEBAMCBkAwMwYJYIZIAYb4QgENBCYWJE9wZW5TU0wg
R2VuZXJhdGVkIFNlcnZlciBDZXJ0aWZpY2F0ZTAdBgNVHQ4EFgQUYSiH4yXgQ3rw
VCoj/bJcdtvN5fEwdAYDVR0jBG0wa4AU9KfAzJFGr2TzkfIn+Miyb4qHMnOhSKRG
MEQxCzAJBgNVBAYTAkRFMQ8wDQYDVQQIDAZIZXNzZW4xFDASBgNVBAoMC3ByaXZh
Y3lpZGVhMQ4wDAYDVQQDDAVDQTAwMYIJAPvI66yDzRIHMBMGA1UdJQQMMAoGCCsG
AQUFBwMBMA0GCSqGSIb3DQEBCwUAA4IBAQC7epQphH1rKH8V5+OZfuHVXhruvbNG
YfnQ0mf2XKsiIOftICfbyTYrM6jbRWjiCkP2qos698e90opPdQKcPxg/HoLy2PDU
O0XMQlHatnEFKA2lR7IjHEdDcO4zrMMt2QxVIJlloADy04/Nlizg3xeHHLhxeGDh
hSC36IJQ4HpAvYvEnSDXBSVHK6bStdwI/ikXAAgxoxEerkJt3s/0e+DADb6fYkMe
MLGWgrCjJWO0sEG3Iwz3vgVsdqL7URnM586D37xs8oaSGAQYTE58K7qYfUSyB6Jc
vroK1Ye+fnYNibYcB+CCTXUmHJCnMHZDDcBRFqroy/G+zUN/wEbGuxyB
-----END CERTIFICATE-----
