Certificate:
    Data:
        Version: 3 (0x2)
        Serial Number: 268435668 (0x100000d4)
        Signature Algorithm: sha256WithRSAEncryption
        Issuer: C=DE, ST=Hessen, O=privacyidea, CN=CA001
        Validity
            Not Before: Jan 27 10:29:50 2023 GMT
            Not After : Jan 27 10:29:50 2024 GMT
        Subject: CN=cn=cornelius
        Subject Public Key Info:
            Public Key Algorithm: rsaEncryption
                RSA Public-Key: (2048 bit)
                Modulus:
                    00:ce:a4:39:30:25:73:e4:9d:e6:37:3b:85:59:83:
                    ef:a3:6e:f9:83:b9:f7:48:b0:0b:d5:e8:05:40:61:
                    cd:c5:5a:bc:11:2f:5b:4e:d0:4f:b8:d0:e8:7f:05:
                    ab:ad:24:0b:90:d4:3f:60:ec:15:b6:4e:be:8e:d9:
                    26:ab:f2:2f:7f:35:c2:a6:a1:bc:52:3a:d9:88:fb:
                    b3:fa:71:20:b9:51:0e:f8:af:0d:16:be:bd:5d:b9:
                    ab:30:d5:ac:6b:3c:bc:ee:28:4a:4f:6f:d4:09:15:
                    f7:98:af:77:db:36:15:2e:1e:ee:0f:d0:d9:60:ad:
                    db:b9:c4:3f:c6:25:32:f9:e3:e9:50:b8:ec:84:a0:
                    c4:d2:9c:fd:ce:25:80:85:7e:3a:ad:4c:a7:40:1b:
                    0a:58:18:9f:c2:5e:36:e1:d1:44:e9:46:b6:dc:b4:
                    28:a2:ec:ed:02:f7:25:79:e1:86:8e:69:67:52:ee:
                    82:21:b7:84:2d:cc:e7:a8:39:57:7d:a3:1e:e9:50:
                    63:77:29:ab:e4:a5:ff:dc:ee:4c:4b:5e:08:2b:62:
                    08:2d:75:b8:26:6c:93:eb:f5:45:ea:cd:83:58:53:
                    15:46:e6:6b:43:c1:2f:d9:88:4b:3d:d5:fd:0c:ff:
                    51:52:ed:54:fb:27:2d:59:ef:4c:50:ce:71:cd:eb:
                    5a:99
                Exponent: 65537 (0x10001)
        X509v3 extensions:
            X509v3 Key Usage: 
                Digital Signature, Key Encipherment
            X509v3 Basic Constraints: 
                CA:FALSE
            Netscape Cert Type: 
                SSL Server
            Netscape Comment: 
                OpenSSL Generated Server Certificate
            X509v3 Subject Key Identifier: 
                0E:D5:BA:4E:7D:92:57:15:FD:61:4E:34:5B:E9:62:D0:20:1C:7D:08
            X509v3 Authority Key Identifier: 
                keyid:F4:A7:C0:CC:91:46:AF:64:F3:91:F2:27:F8:C8:B2:6F:8A:87:32:73
                DirName:/C=DE/ST=Hessen/O=privacyidea/CN=CA001
                serial:FB:C8:EB:AC:83:CD:12:07

            X509v3 Extended Key Usage: 
                TLS Web Server Authentication
    Signature Algorithm: sha256WithRSAEncryption
         b6:af:5a:31:1b:2a:a4:07:d2:de:8c:b7:e3:36:01:6c:75:22:
         07:3f:fe:3b:41:d1:27:aa:48:d1:cb:bd:c6:0e:15:9c:74:2b:
         3d:61:ad:8f:f5:2a:ef:90:72:3b:20:6e:a6:f3:29:ee:e5:06:
         8a:14:42:dc:2c:45:24:32:f5:10:cc:77:e9:a0:49:55:67:c9:
         3b:0e:9f:d6:20:e9:ce:db:bd:09:84:42:e7:87:6e:14:c0:9c:
         a3:18:de:ef:76:56:0e:81:65:8e:1b:77:d9:4f:66:83:e1:00:
         2a:47:a0:a4:e8:3f:c8:2e:8b:45:43:0c:9f:0c:64:9e:20:ba:
         23:36:20:f9:5e:f3:9e:84:4f:8a:73:fb:10:cb:a0:68:01:29:
         1e:32:f3:e9:29:a1:43:c2:e2:41:35:c9:bb:83:a0:02:ce:ce:
         92:e5:c8:bc:3a:39:bb:f6:83:8c:d0:99:cf:94:3b:99:9f:ea:
         e9:58:4e:d3:6a:84:83:fd:cd:87:b6:35:f0:09:f3:7c:4d:60:
         45:b2:8f:fc:32:85:1a:cf:a4:e6:50:fe:a5:5e:90:05:31:8d:
         1d:93:01:c8:64:df:06:96:46:63:5b:21:9c:71:d5:ed:ca:04:
         55:9a:61:4f:81:7e:29:5d:8f:9d:07:d2:cc:e6:c9:e3:44:26:
         5d:90:f7:73
-----BEGIN CERTIFICATE-----
MIID6TCCAtGgAwIBAgIEEAAA1DANBgkqhkiG9w0BAQsFADBEMQswCQYDVQQGEwJE
RTEPMA0GA1UECAwGSGVzc2VuMRQwEgYDVQQKDAtwcml2YWN5aWRlYTEOMAwGA1UE
AwwFQ0EwMDEwHhcNMjMwMTI3MTAyOTUwWhcNMjQwMTI3MTAyOTUwWjAXMRUwEwYD
VQQDDAxjbj1jb3JuZWxpdXMwggEiMA0GCSqGSIb3DQEBAQUAA4IBDwAwggEKAoIB
AQDOpDkwJXPkneY3O4VZg++jbvmDufdIsAvV6AVAYc3FWrwRL1tO0E+40Oh/Baut
JAuQ1D9g7BW2Tr6O2Sar8i9/NcKmobxSOtmI+7P6cSC5UQ74rw0Wvr1duasw1axr
PLzuKEpPb9QJFfeYr3fbNhUuHu4P0Nlgrdu5xD/GJTL54+lQuOyEoMTSnP3OJYCF
fjqtTKdAGwpYGJ/CXjbh0UTpRrbctCii7O0C9yV54YaOaWdS7oIht4QtzOeoOVd9
ox7pUGN3Kavkpf/c7kxLXggrYggtdbgmbJPr9UXqzYNYUxVG5mtDwS/ZiEs91f0M
/1FS7VT7Jy1Z70xQznHN61qZAgMBAAGjggEOMIIBCjALBgNVHQ8EBAMCBaAwCQYD
VR0TBAIwADARBglghkgBhvhCAQEEBAMCBkAwMwYJYIZIAYb4QgENBCYWJE9wZW5T
U0wgR2VuZXJhdGVkIFNlcnZlciBDZXJ0aWZpY2F0ZTAdBgNVHQ4EFgQUDtW6Tn2S
VxX9YU40W+li0CAcfQgwdAYDVR0jBG0wa4AU9KfAzJFGr2TzkfIn+Miyb4qHMnOh
SKRGMEQxCzAJBgNVBAYTAkRFMQ8wDQYDVQQIDAZIZXNzZW4xFDASBgNVBAoMC3By
aXZhY3lpZGVhMQ4wDAYDVQQDDAVDQTAwMYIJAPvI66yDzRIHMBMGA1UdJQQMMAoG
CCsGAQUFBwMBMA0GCSqGSIb3DQEBCwUAA4IBAQC2r1oxGyqkB9LejLfjNgFsdSIH
P/47QdEnqkjRy73GDhWcdCs9Ya2P9SrvkHI7IG6m8ynu5QaKFELcLEUkMvUQzHfp
oElVZ8k7Dp/WIOnO270JhELnh24UwJyjGN7vdlYOgWWOG3fZT2aD4QAqR6Ck6D/I
LotFQwyfDGSeILojNiD5XvOehE+Kc/sQy6BoASkeMvPpKaFDwuJBNcm7g6ACzs6S
5ci8Ojm79oOM0JnPlDuZn+rpWE7TaoSD/c2HtjXwCfN8TWBFso/8MoUaz6TmUP6l
XpAFMY0dkwHIZN8GlkZjWyGccdXtygRVmmFPgX4pXY+dB9LM5snjRCZdkPdz
-----END CERTIFICATE-----
